; Function Attrs: mustprogress nounwind uwtable
define internal fastcc void @_ZNK12_GLOBAL__N_111IfConverter22reverseBranchConditionERNS0_6BBInfoE(ptr nocapture noundef nonnull readonly align 8 dereferenceable(504) %0, ptr noundef nonnull align 8 dereferenceable(328) %1) unnamed_addr #0 align 2 {
  %3 = alloca %"class.llvm::DebugLoc", align 8
  store ptr null, ptr %3, align 8
  %4 = getelementptr inbounds nuw i8, ptr %0, i64 368
  %5 = load ptr, ptr %4, align 8
  %6 = getelementptr inbounds nuw i8, ptr %1, i64 40
  %7 = load ptr, ptr %5, align 8
  %8 = getelementptr inbounds i8, ptr %7, i64 792
  %9 = load ptr, ptr %8, align 8
  %10 = tail call noundef zeroext i1 %9(ptr noundef nonnull align 8 dereferenceable(80) %5, ptr noundef nonnull align 8 dereferenceable(16) %6) #22
  br i1 %10, label %_ZN4llvm8DebugLocD2Ev.exit, label %11

11:                                               ; preds = %2
  %12 = load ptr, ptr %4, align 8
  %13 = getelementptr inbounds nuw i8, ptr %1, i64 16
  %14 = load ptr, ptr %13, align 8
  %15 = load ptr, ptr %12, align 8
  %16 = getelementptr inbounds i8, ptr %15, i64 272
  %17 = load ptr, ptr %16, align 8
  %18 = tail call noundef i32 %17(ptr noundef nonnull align 8 dereferenceable(80) %12, ptr noundef nonnull align 8 dereferenceable(288) %14, ptr noundef null) #22
  %19 = load ptr, ptr %4, align 8
  %20 = load ptr, ptr %13, align 8
  %21 = getelementptr inbounds nuw i8, ptr %1, i64 32
  %22 = load ptr, ptr %21, align 8
  %23 = getelementptr inbounds nuw i8, ptr %1, i64 24
  %24 = load ptr, ptr %23, align 8
  %25 = load ptr, ptr %6, align 8
  %26 = tail call noundef i64 @_ZNK4llvm15SmallVectorBaseIjE4sizeEv(ptr noundef nonnull align 8 dereferenceable(16) %6) #22
  %27 = load ptr, ptr %19, align 8
  %28 = getelementptr inbounds i8, ptr %27, i64 280
  %29 = load ptr, ptr %28, align 8
  %30 = call noundef i32 %29(ptr noundef nonnull align 8 dereferenceable(80) %19, ptr noundef nonnull align 8 dereferenceable(288) %20, ptr noundef %22, ptr noundef %24, ptr %25, i64 %26, ptr noundef nonnull align 8 dereferenceable(8) %3, ptr noundef null) #22
  %31 = load ptr, ptr %23, align 8
  %32 = load ptr, ptr %21, align 8
  store ptr %32, ptr %23, align 8
  store ptr %31, ptr %21, align 8
  %.pre = load ptr, ptr %3, align 8
  %.not.i.i.i.i = icmp eq ptr %.pre, null
  br i1 %.not.i.i.i.i, label %_ZN4llvm8DebugLocD2Ev.exit, label %33

33:                                               ; preds = %11
  call void @_ZN4llvm16MetadataTracking7untrackEPvRNS_8MetadataE(ptr noundef nonnull %3, ptr noundef nonnull align 4 dereferenceable(8) %.pre) #22
  br label %_ZN4llvm8DebugLocD2Ev.exit

_ZN4llvm8DebugLocD2Ev.exit:                       ; preds = %2, %11, %33
  ret void
}